target datalayout = "e-m:e-p270:32:32-p271:32:32-p272:64:64-i64:64-i128:128-f80:128-n8:16:32:64-S128"
target triple = "x86_64-pc-linux-gnu"

%struct.black_TWorker_ = type { i32, i32, i32, i32, i32, ptr, ptr, ptr, ptr, i32, i8, i64, i64, i64, i64, i16, i32, ptr, ptr, ptr, i32, %struct.FT_Outline_, i32, i32, i32, ptr, ptr, ptr, ptr, ptr, ptr }
%struct.FT_Outline_ = type { i16, i16, ptr, ptr, ptr, i32 }
%struct.TPoint_ = type { i64, i64 }

; Function Attrs: nounwind uwtable
define internal signext i8 @Bezier_Up(ptr noundef %0, i32 noundef %1, ptr noundef %2, ptr noundef %3, i64 noundef %4, i64 noundef %5) #0 {
  %7 = alloca i8, align 1
  %8 = alloca ptr, align 8
  %9 = alloca i32, align 4
  %10 = alloca ptr, align 8
  %11 = alloca ptr, align 8
  %12 = alloca i64, align 8
  %13 = alloca i64, align 8
  %14 = alloca i64, align 8
  %15 = alloca i64, align 8
  %16 = alloca i64, align 8
  %17 = alloca i64, align 8
  %18 = alloca i64, align 8
  %19 = alloca i64, align 8
  %20 = alloca i64, align 8
  %21 = alloca ptr, align 8
  %22 = alloca i32, align 4
  store ptr %0, ptr %8, align 8, !tbaa !105
  store i32 %1, ptr %9, align 4, !tbaa !15
  store ptr %2, ptr %10, align 8, !tbaa !161
  store ptr %3, ptr %11, align 8, !tbaa !3
  store i64 %4, ptr %12, align 8, !tbaa !23
  store i64 %5, ptr %13, align 8, !tbaa !23
  call void @llvm.lifetime.start.p0(i64 8, ptr %14) #5
  call void @llvm.lifetime.start.p0(i64 8, ptr %15) #5
  call void @llvm.lifetime.start.p0(i64 8, ptr %16) #5
  call void @llvm.lifetime.start.p0(i64 8, ptr %17) #5
  call void @llvm.lifetime.start.p0(i64 8, ptr %18) #5
  call void @llvm.lifetime.start.p0(i64 8, ptr %19) #5
  call void @llvm.lifetime.start.p0(i64 8, ptr %20) #5
  call void @llvm.lifetime.start.p0(i64 8, ptr %21) #5
  %23 = load ptr, ptr %10, align 8, !tbaa !161
  %24 = load i32, ptr %9, align 4, !tbaa !15
  %25 = sext i32 %24 to i64
  %26 = getelementptr inbounds %struct.TPoint_, ptr %23, i64 %25
  %27 = getelementptr inbounds nuw %struct.TPoint_, ptr %26, i32 0, i32 1
  %28 = load i64, ptr %27, align 8, !tbaa !165
  store i64 %28, ptr %14, align 8, !tbaa !23
  %29 = load ptr, ptr %10, align 8, !tbaa !161
  %30 = getelementptr inbounds %struct.TPoint_, ptr %29, i64 0
  %31 = getelementptr inbounds nuw %struct.TPoint_, ptr %30, i32 0, i32 1
  %32 = load i64, ptr %31, align 8, !tbaa !165
  store i64 %32, ptr %15, align 8, !tbaa !23
  %33 = load i64, ptr %15, align 8, !tbaa !23
  %34 = load i64, ptr %12, align 8, !tbaa !23
  %35 = icmp slt i64 %33, %34
  br i1 %35, label %40, label %36

36:                                               ; preds = %6
  %37 = load i64, ptr %14, align 8, !tbaa !23
  %38 = load i64, ptr %13, align 8, !tbaa !23
  %39 = icmp sgt i64 %37, %38
  br i1 %39, label %40, label %41

40:                                               ; preds = %36, %6
  store i8 0, ptr %7, align 1
  store i32 1, ptr %22, align 4
  br label %226

41:                                               ; preds = %36
  %42 = load i64, ptr %15, align 8, !tbaa !23
  %43 = load i64, ptr %13, align 8, !tbaa !23
  %44 = icmp sgt i64 %42, %43
  br i1 %44, label %45, label %47

45:                                               ; preds = %41
  %46 = load i64, ptr %13, align 8, !tbaa !23
  br label %55

47:                                               ; preds = %41
  %48 = load i64, ptr %15, align 8, !tbaa !23
  %49 = load ptr, ptr %8, align 8, !tbaa !105
  %50 = getelementptr inbounds nuw %struct.black_TWorker_, ptr %49, i32 0, i32 1
  %51 = load i32, ptr %50, align 4, !tbaa !117
  %52 = sub nsw i32 0, %51
  %53 = sext i32 %52 to i64
  %54 = and i64 %48, %53
  br label %55

55:                                               ; preds = %47, %45
  %56 = phi i64 [ %46, %45 ], [ %54, %47 ]
  store i64 %56, ptr %17, align 8, !tbaa !23
  %57 = load i64, ptr %14, align 8, !tbaa !23
  %58 = load i64, ptr %12, align 8, !tbaa !23
  %59 = icmp slt i64 %57, %58
  br i1 %59, label %60, label %62

60:                                               ; preds = %55
  %61 = load i64, ptr %12, align 8, !tbaa !23
  br label %76

62:                                               ; preds = %55
  %63 = load i64, ptr %14, align 8, !tbaa !23
  %64 = load ptr, ptr %8, align 8, !tbaa !105
  %65 = getelementptr inbounds nuw %struct.black_TWorker_, ptr %64, i32 0, i32 1
  %66 = load i32, ptr %65, align 4, !tbaa !117
  %67 = sext i32 %66 to i64
  %68 = add nsw i64 %63, %67
  %69 = sub nsw i64 %68, 1
  %70 = load ptr, ptr %8, align 8, !tbaa !105
  %71 = getelementptr inbounds nuw %struct.black_TWorker_, ptr %70, i32 0, i32 1
  %72 = load i32, ptr %71, align 4, !tbaa !117
  %73 = sub nsw i32 0, %72
  %74 = sext i32 %73 to i64
  %75 = and i64 %69, %74
  br label %76

76:                                               ; preds = %62, %60
  %77 = phi i64 [ %61, %60 ], [ %75, %62 ]
  store i64 %77, ptr %16, align 8, !tbaa !23
  %78 = load i64, ptr %14, align 8, !tbaa !23
  %79 = load i64, ptr %16, align 8, !tbaa !23
  %80 = icmp eq i64 %78, %79
  br i1 %80, label %81, label %88

81:                                               ; preds = %76
  %82 = load ptr, ptr %8, align 8, !tbaa !105
  %83 = getelementptr inbounds nuw %struct.black_TWorker_, ptr %82, i32 0, i32 1
  %84 = load i32, ptr %83, align 4, !tbaa !117
  %85 = sext i32 %84 to i64
  %86 = load i64, ptr %16, align 8, !tbaa !23
  %87 = add nsw i64 %86, %85
  store i64 %87, ptr %16, align 8, !tbaa !23
  br label %88

88:                                               ; preds = %81, %76
  %89 = load i64, ptr %17, align 8, !tbaa !23
  %90 = load i64, ptr %16, align 8, !tbaa !23
  %91 = icmp slt i64 %89, %90
  br i1 %91, label %92, label %93

92:                                               ; preds = %88
  store i8 0, ptr %7, align 1
  store i32 1, ptr %22, align 4
  br label %226

93:                                               ; preds = %88
  %94 = load ptr, ptr %8, align 8, !tbaa !105
  %95 = getelementptr inbounds nuw %struct.black_TWorker_, ptr %94, i32 0, i32 8
  %96 = load ptr, ptr %95, align 8, !tbaa !129
  store ptr %96, ptr %21, align 8, !tbaa !168
  %97 = load ptr, ptr %21, align 8, !tbaa !168
  %98 = load i64, ptr %17, align 8, !tbaa !23
  %99 = load i64, ptr %16, align 8, !tbaa !23
  %100 = sub nsw i64 %98, %99
  %101 = load ptr, ptr %8, align 8, !tbaa !105
  %102 = getelementptr inbounds nuw %struct.black_TWorker_, ptr %101, i32 0, i32 0
  %103 = load i32, ptr %102, align 8, !tbaa !115
  %104 = zext i32 %103 to i64
  %105 = ashr i64 %100, %104
  %106 = getelementptr inbounds i64, ptr %97, i64 %105
  %107 = getelementptr inbounds i64, ptr %106, i64 1
  %108 = load ptr, ptr %8, align 8, !tbaa !105
  %109 = getelementptr inbounds nuw %struct.black_TWorker_, ptr %108, i32 0, i32 7
  %110 = load ptr, ptr %109, align 8, !tbaa !130
  %111 = icmp uge ptr %107, %110
  br i1 %111, label %112, label %115

112:                                              ; preds = %93
  %113 = load ptr, ptr %8, align 8, !tbaa !105
  %114 = getelementptr inbounds nuw %struct.black_TWorker_, ptr %113, i32 0, i32 9
  store i32 98, ptr %114, align 8, !tbaa !126
  store i8 1, ptr %7, align 1
  store i32 1, ptr %22, align 4
  br label %226

115:                                              ; preds = %93
  br label %116

116:                                              ; preds = %218, %115
  %117 = load ptr, ptr %10, align 8, !tbaa !161
  %118 = getelementptr inbounds %struct.TPoint_, ptr %117, i64 0
  %119 = getelementptr inbounds nuw %struct.TPoint_, ptr %118, i32 0, i32 1
  %120 = load i64, ptr %119, align 8, !tbaa !165
  store i64 %120, ptr %15, align 8, !tbaa !23
  %121 = load ptr, ptr %10, align 8, !tbaa !161
  %122 = getelementptr inbounds %struct.TPoint_, ptr %121, i64 0
  %123 = getelementptr inbounds nuw %struct.TPoint_, ptr %122, i32 0, i32 0
  %124 = load i64, ptr %123, align 8, !tbaa !163
  store i64 %124, ptr %20, align 8, !tbaa !23
  %125 = load i64, ptr %15, align 8, !tbaa !23
  %126 = load i64, ptr %16, align 8, !tbaa !23
  %127 = icmp sgt i64 %125, %126
  br i1 %127, label %128, label %197

128:                                              ; preds = %116
  %129 = load i64, ptr %15, align 8, !tbaa !23
  %130 = load ptr, ptr %10, align 8, !tbaa !161
  %131 = load i32, ptr %9, align 4, !tbaa !15
  %132 = sext i32 %131 to i64
  %133 = getelementptr inbounds %struct.TPoint_, ptr %130, i64 %132
  %134 = getelementptr inbounds nuw %struct.TPoint_, ptr %133, i32 0, i32 1
  %135 = load i64, ptr %134, align 8, !tbaa !165
  %136 = sub nsw i64 %129, %135
  store i64 %136, ptr %18, align 8, !tbaa !23
  %137 = load i64, ptr %20, align 8, !tbaa !23
  %138 = load ptr, ptr %10, align 8, !tbaa !161
  %139 = load i32, ptr %9, align 4, !tbaa !15
  %140 = sext i32 %139 to i64
  %141 = getelementptr inbounds %struct.TPoint_, ptr %138, i64 %140
  %142 = getelementptr inbounds nuw %struct.TPoint_, ptr %141, i32 0, i32 0
  %143 = load i64, ptr %142, align 8, !tbaa !163
  %144 = sub nsw i64 %137, %143
  store i64 %144, ptr %19, align 8, !tbaa !23
  %145 = load i64, ptr %18, align 8, !tbaa !23
  %146 = load ptr, ptr %8, align 8, !tbaa !105
  %147 = getelementptr inbounds nuw %struct.black_TWorker_, ptr %146, i32 0, i32 4
  %148 = load i32, ptr %147, align 8, !tbaa !116
  %149 = sext i32 %148 to i64
  %150 = icmp sgt i64 %145, %149
  br i1 %150, label %166, label %151

151:                                              ; preds = %128
  %152 = load i64, ptr %19, align 8, !tbaa !23
  %153 = load ptr, ptr %8, align 8, !tbaa !105
  %154 = getelementptr inbounds nuw %struct.black_TWorker_, ptr %153, i32 0, i32 4
  %155 = load i32, ptr %154, align 8, !tbaa !116
  %156 = sext i32 %155 to i64
  %157 = icmp sgt i64 %152, %156
  br i1 %157, label %166, label %158

158:                                              ; preds = %151
  %159 = load i64, ptr %19, align 8, !tbaa !23
  %160 = sub nsw i64 0, %159
  %161 = load ptr, ptr %8, align 8, !tbaa !105
  %162 = getelementptr inbounds nuw %struct.black_TWorker_, ptr %161, i32 0, i32 4
  %163 = load i32, ptr %162, align 8, !tbaa !116
  %164 = sext i32 %163 to i64
  %165 = icmp sgt i64 %160, %164
  br i1 %165, label %166, label %173

166:                                              ; preds = %158, %151, %128
  %167 = load ptr, ptr %11, align 8, !tbaa !3
  %168 = load ptr, ptr %10, align 8, !tbaa !161
  call void %167(ptr noundef %168)
  %169 = load i32, ptr %9, align 4, !tbaa !15
  %170 = load ptr, ptr %10, align 8, !tbaa !161
  %171 = sext i32 %169 to i64
  %172 = getelementptr inbounds %struct.TPoint_, ptr %170, i64 %171
  store ptr %172, ptr %10, align 8, !tbaa !161
  br label %196

173:                                              ; preds = %158
  %174 = load i64, ptr %20, align 8, !tbaa !23
  %175 = load i64, ptr %15, align 8, !tbaa !23
  %176 = load i64, ptr %16, align 8, !tbaa !23
  %177 = sub nsw i64 %175, %176
  %178 = load i64, ptr %19, align 8, !tbaa !23
  %179 = mul nsw i64 %177, %178
  %180 = load i64, ptr %18, align 8, !tbaa !23
  %181 = sdiv i64 %179, %180
  %182 = sub nsw i64 %174, %181
  %183 = load ptr, ptr %21, align 8, !tbaa !168
  %184 = getelementptr inbounds nuw i64, ptr %183, i32 1
  store ptr %184, ptr %21, align 8, !tbaa !168
  store i64 %182, ptr %183, align 8, !tbaa !23
  %185 = load ptr, ptr %8, align 8, !tbaa !105
  %186 = getelementptr inbounds nuw %struct.black_TWorker_, ptr %185, i32 0, i32 1
  %187 = load i32, ptr %186, align 4, !tbaa !117
  %188 = sext i32 %187 to i64
  %189 = load i64, ptr %16, align 8, !tbaa !23
  %190 = add nsw i64 %189, %188
  store i64 %190, ptr %16, align 8, !tbaa !23
  %191 = load i32, ptr %9, align 4, !tbaa !15
  %192 = load ptr, ptr %10, align 8, !tbaa !161
  %193 = sext i32 %191 to i64
  %194 = sub i64 0, %193
  %195 = getelementptr inbounds %struct.TPoint_, ptr %192, i64 %194
  store ptr %195, ptr %10, align 8, !tbaa !161
  br label %196

196:                                              ; preds = %173, %166
  br label %217

197:                                              ; preds = %116
  %198 = load i64, ptr %15, align 8, !tbaa !23
  %199 = load i64, ptr %16, align 8, !tbaa !23
  %200 = icmp eq i64 %198, %199
  br i1 %200, label %201, label %211

201:                                              ; preds = %197
  %202 = load i64, ptr %20, align 8, !tbaa !23
  %203 = load ptr, ptr %21, align 8, !tbaa !168
  %204 = getelementptr inbounds nuw i64, ptr %203, i32 1
  store ptr %204, ptr %21, align 8, !tbaa !168
  store i64 %202, ptr %203, align 8, !tbaa !23
  %205 = load ptr, ptr %8, align 8, !tbaa !105
  %206 = getelementptr inbounds nuw %struct.black_TWorker_, ptr %205, i32 0, i32 1
  %207 = load i32, ptr %206, align 4, !tbaa !117
  %208 = sext i32 %207 to i64
  %209 = load i64, ptr %16, align 8, !tbaa !23
  %210 = add nsw i64 %209, %208
  store i64 %210, ptr %16, align 8, !tbaa !23
  br label %211

211:                                              ; preds = %201, %197
  %212 = load i32, ptr %9, align 4, !tbaa !15
  %213 = load ptr, ptr %10, align 8, !tbaa !161
  %214 = sext i32 %212 to i64
  %215 = sub i64 0, %214
  %216 = getelementptr inbounds %struct.TPoint_, ptr %213, i64 %215
  store ptr %216, ptr %10, align 8, !tbaa !161
  br label %217

217:                                              ; preds = %211, %196
  br label %218

218:                                              ; preds = %217
  %219 = load i64, ptr %16, align 8, !tbaa !23
  %220 = load i64, ptr %17, align 8, !tbaa !23
  %221 = icmp sle i64 %219, %220
  br i1 %221, label %116, label %222, !llvm.loop !171

222:                                              ; preds = %218
  %223 = load ptr, ptr %21, align 8, !tbaa !168
  %224 = load ptr, ptr %8, align 8, !tbaa !105
  %225 = getelementptr inbounds nuw %struct.black_TWorker_, ptr %224, i32 0, i32 8
  store ptr %223, ptr %225, align 8, !tbaa !129
  store i8 0, ptr %7, align 1
  store i32 1, ptr %22, align 4
  br label %226

226:                                              ; preds = %222, %112, %92, %40
  call void @llvm.lifetime.end.p0(i64 8, ptr %21) #5
  call void @llvm.lifetime.end.p0(i64 8, ptr %20) #5
  call void @llvm.lifetime.end.p0(i64 8, ptr %19) #5
  call void @llvm.lifetime.end.p0(i64 8, ptr %18) #5
  call void @llvm.lifetime.end.p0(i64 8, ptr %17) #5
  call void @llvm.lifetime.end.p0(i64 8, ptr %16) #5
  call void @llvm.lifetime.end.p0(i64 8, ptr %15) #5
  call void @llvm.lifetime.end.p0(i64 8, ptr %14) #5
  %227 = load i8, ptr %7, align 1
  ret i8 %227
}